target datalayout = "e-m:e-p270:32:32-p271:32:32-p272:64:64-i64:64-i128:128-f80:128-n8:16:32:64-S128"
target triple = "x86_64-pc-linux-gnu"

%"class.std::__cxx11::basic_string" = type { %"struct.std::__cxx11::basic_string<char>::_Alloc_hider", i64, %union.anon }
%"struct.std::__cxx11::basic_string<char>::_Alloc_hider" = type { ptr }
%union.anon = type { i64, [8 x i8] }
%"class.duckdb_parquet::SizeStatistics" = type <{ %"class.duckdb_apache::thrift::TBase", i64, %"class.duckdb::vector", %"class.duckdb::vector", %"struct.duckdb_parquet::_SizeStatistics__isset", [7 x i8] }>
%"class.duckdb_apache::thrift::TBase" = type { ptr }
%"class.duckdb::vector" = type { %"class.std::vector" }
%"class.std::vector" = type { %"struct.std::_Vector_base" }
%"struct.std::_Vector_base" = type { %"struct.std::_Vector_base<long, std::allocator<long>>::_Vector_impl" }
%"struct.std::_Vector_base<long, std::allocator<long>>::_Vector_impl" = type { %"struct.std::_Vector_base<long, std::allocator<long>>::_Vector_impl_data" }
%"struct.std::_Vector_base<long, std::allocator<long>>::_Vector_impl_data" = type { ptr, ptr, ptr }
%"struct.duckdb_parquet::_SizeStatistics__isset" = type { i8 }
%"class.duckdb_parquet::Statistics" = type <{ %"class.duckdb_apache::thrift::TBase", %"class.std::__cxx11::basic_string", %"class.std::__cxx11::basic_string", i64, i64, %"class.std::__cxx11::basic_string", %"class.std::__cxx11::basic_string", i8, i8, %"struct.duckdb_parquet::_Statistics__isset", [5 x i8] }>
%"struct.duckdb_parquet::_Statistics__isset" = type { i8 }
%"class.duckdb_parquet::ColumnMetaData" = type <{ %"class.duckdb_apache::thrift::TBase", i32, [4 x i8], %"class.duckdb::vector.6", %"class.duckdb::vector.12", i32, [4 x i8], i64, i64, i64, %"class.duckdb::vector.18", i64, i64, i64, %"class.duckdb_parquet::Statistics", %"class.duckdb::vector.24", i64, i32, [4 x i8], %"class.duckdb_parquet::SizeStatistics", %"struct.duckdb_parquet::_ColumnMetaData__isset", [7 x i8] }>
%"class.duckdb::vector.6" = type { %"class.std::vector.7" }
%"class.std::vector.7" = type { %"struct.std::_Vector_base.8" }
%"struct.std::_Vector_base.8" = type { %"struct.std::_Vector_base<duckdb_parquet::Encoding::type, std::allocator<duckdb_parquet::Encoding::type>>::_Vector_impl" }
%"struct.std::_Vector_base<duckdb_parquet::Encoding::type, std::allocator<duckdb_parquet::Encoding::type>>::_Vector_impl" = type { %"struct.std::_Vector_base<duckdb_parquet::Encoding::type, std::allocator<duckdb_parquet::Encoding::type>>::_Vector_impl_data" }
%"struct.std::_Vector_base<duckdb_parquet::Encoding::type, std::allocator<duckdb_parquet::Encoding::type>>::_Vector_impl_data" = type { ptr, ptr, ptr }
%"class.duckdb::vector.12" = type { %"class.std::vector.13" }
%"class.std::vector.13" = type { %"struct.std::_Vector_base.14" }
%"struct.std::_Vector_base.14" = type { %"struct.std::_Vector_base<std::__cxx11::basic_string<char>, std::allocator<std::__cxx11::basic_string<char>>>::_Vector_impl" }
%"struct.std::_Vector_base<std::__cxx11::basic_string<char>, std::allocator<std::__cxx11::basic_string<char>>>::_Vector_impl" = type { %"struct.std::_Vector_base<std::__cxx11::basic_string<char>, std::allocator<std::__cxx11::basic_string<char>>>::_Vector_impl_data" }
%"struct.std::_Vector_base<std::__cxx11::basic_string<char>, std::allocator<std::__cxx11::basic_string<char>>>::_Vector_impl_data" = type { ptr, ptr, ptr }
%"class.duckdb::vector.18" = type { %"class.std::vector.19" }
%"class.std::vector.19" = type { %"struct.std::_Vector_base.20" }
%"struct.std::_Vector_base.20" = type { %"struct.std::_Vector_base<duckdb_parquet::KeyValue, std::allocator<duckdb_parquet::KeyValue>>::_Vector_impl" }
%"struct.std::_Vector_base<duckdb_parquet::KeyValue, std::allocator<duckdb_parquet::KeyValue>>::_Vector_impl" = type { %"struct.std::_Vector_base<duckdb_parquet::KeyValue, std::allocator<duckdb_parquet::KeyValue>>::_Vector_impl_data" }
%"struct.std::_Vector_base<duckdb_parquet::KeyValue, std::allocator<duckdb_parquet::KeyValue>>::_Vector_impl_data" = type { ptr, ptr, ptr }
%"class.duckdb::vector.24" = type { %"class.std::vector.25" }
%"class.std::vector.25" = type { %"struct.std::_Vector_base.26" }
%"struct.std::_Vector_base.26" = type { %"struct.std::_Vector_base<duckdb_parquet::PageEncodingStats, std::allocator<duckdb_parquet::PageEncodingStats>>::_Vector_impl" }
%"struct.std::_Vector_base<duckdb_parquet::PageEncodingStats, std::allocator<duckdb_parquet::PageEncodingStats>>::_Vector_impl" = type { %"struct.std::_Vector_base<duckdb_parquet::PageEncodingStats, std::allocator<duckdb_parquet::PageEncodingStats>>::_Vector_impl_data" }
%"struct.std::_Vector_base<duckdb_parquet::PageEncodingStats, std::allocator<duckdb_parquet::PageEncodingStats>>::_Vector_impl_data" = type { ptr, ptr, ptr }
%"struct.duckdb_parquet::_ColumnMetaData__isset" = type { i8 }

; Function Attrs: mustprogress uwtable
define available_externally noundef nonnull align 8 dereferenceable(32) ptr @_ZNSt7__cxx1112basic_stringIcSt11char_traitsIcESaIcEE6assignERKS4_(ptr noundef nonnull align 8 dereferenceable(32) %0, ptr noundef nonnull align 8 dereferenceable(32) %1) #2 align 2 {
  %3 = alloca ptr, align 8
  %4 = alloca ptr, align 8
  store ptr %0, ptr %3, align 8, !tbaa !40
  store ptr %1, ptr %4, align 8, !tbaa !40
  %5 = load ptr, ptr %3, align 8
  %6 = load ptr, ptr %4, align 8, !tbaa !40
  call void @_ZNSt7__cxx1112basic_stringIcSt11char_traitsIcESaIcEE9_M_assignERKS4_(ptr noundef nonnull align 8 dereferenceable(32) %5, ptr noundef nonnull align 8 dereferenceable(32) %6)
  ret ptr %5
}

; Function Attrs: mustprogress uwtable
define available_externally noundef nonnull align 8 dereferenceable(32) ptr @_ZNSt7__cxx1112basic_stringIcSt11char_traitsIcESaIcEEaSERKS4_(ptr noundef nonnull align 8 dereferenceable(32) %0, ptr noundef nonnull align 8 dereferenceable(32) %1) #2 align 2 {
  %3 = alloca ptr, align 8
  %4 = alloca ptr, align 8
  store ptr %0, ptr %3, align 8, !tbaa !40
  store ptr %1, ptr %4, align 8, !tbaa !40
  %5 = load ptr, ptr %3, align 8
  %6 = load ptr, ptr %4, align 8, !tbaa !40
  %7 = call noundef nonnull align 8 dereferenceable(32) ptr @_ZNSt7__cxx1112basic_stringIcSt11char_traitsIcESaIcEE6assignERKS4_(ptr noundef nonnull align 8 dereferenceable(32) %5, ptr noundef nonnull align 8 dereferenceable(32) %6)
  ret ptr %7
}

; Function Attrs: mustprogress uwtable
define noundef nonnull align 8 dereferenceable(155) ptr @_ZN14duckdb_parquet10StatisticsaSERKS0_(ptr noundef nonnull align 8 dereferenceable(155) %0, ptr noundef nonnull align 8 dereferenceable(155) %1) #2 align 2 {
  %3 = alloca ptr, align 8
  %4 = alloca ptr, align 8
  store ptr %0, ptr %3, align 8, !tbaa !113
  store ptr %1, ptr %4, align 8, !tbaa !113
  %5 = load ptr, ptr %3, align 8
  %6 = load ptr, ptr %4, align 8, !tbaa !113
  %7 = getelementptr inbounds nuw %"class.duckdb_parquet::Statistics", ptr %6, i32 0, i32 1
  %8 = getelementptr inbounds nuw %"class.duckdb_parquet::Statistics", ptr %5, i32 0, i32 1
  %9 = call noundef nonnull align 8 dereferenceable(32) ptr @_ZNSt7__cxx1112basic_stringIcSt11char_traitsIcESaIcEEaSERKS4_(ptr noundef nonnull align 8 dereferenceable(32) %8, ptr noundef nonnull align 8 dereferenceable(32) %7)
  %10 = load ptr, ptr %4, align 8, !tbaa !113
  %11 = getelementptr inbounds nuw %"class.duckdb_parquet::Statistics", ptr %10, i32 0, i32 2
  %12 = getelementptr inbounds nuw %"class.duckdb_parquet::Statistics", ptr %5, i32 0, i32 2
  %13 = call noundef nonnull align 8 dereferenceable(32) ptr @_ZNSt7__cxx1112basic_stringIcSt11char_traitsIcESaIcEEaSERKS4_(ptr noundef nonnull align 8 dereferenceable(32) %12, ptr noundef nonnull align 8 dereferenceable(32) %11)
  %14 = load ptr, ptr %4, align 8, !tbaa !113
  %15 = getelementptr inbounds nuw %"class.duckdb_parquet::Statistics", ptr %14, i32 0, i32 3
  %16 = load i64, ptr %15, align 8, !tbaa !115
  %17 = getelementptr inbounds nuw %"class.duckdb_parquet::Statistics", ptr %5, i32 0, i32 3
  store i64 %16, ptr %17, align 8, !tbaa !115
  %18 = load ptr, ptr %4, align 8, !tbaa !113
  %19 = getelementptr inbounds nuw %"class.duckdb_parquet::Statistics", ptr %18, i32 0, i32 4
  %20 = load i64, ptr %19, align 8, !tbaa !120
  %21 = getelementptr inbounds nuw %"class.duckdb_parquet::Statistics", ptr %5, i32 0, i32 4
  store i64 %20, ptr %21, align 8, !tbaa !120
  %22 = load ptr, ptr %4, align 8, !tbaa !113
  %23 = getelementptr inbounds nuw %"class.duckdb_parquet::Statistics", ptr %22, i32 0, i32 5
  %24 = getelementptr inbounds nuw %"class.duckdb_parquet::Statistics", ptr %5, i32 0, i32 5
  %25 = call noundef nonnull align 8 dereferenceable(32) ptr @_ZNSt7__cxx1112basic_stringIcSt11char_traitsIcESaIcEEaSERKS4_(ptr noundef nonnull align 8 dereferenceable(32) %24, ptr noundef nonnull align 8 dereferenceable(32) %23)
  %26 = load ptr, ptr %4, align 8, !tbaa !113
  %27 = getelementptr inbounds nuw %"class.duckdb_parquet::Statistics", ptr %26, i32 0, i32 6
  %28 = getelementptr inbounds nuw %"class.duckdb_parquet::Statistics", ptr %5, i32 0, i32 6
  %29 = call noundef nonnull align 8 dereferenceable(32) ptr @_ZNSt7__cxx1112basic_stringIcSt11char_traitsIcESaIcEEaSERKS4_(ptr noundef nonnull align 8 dereferenceable(32) %28, ptr noundef nonnull align 8 dereferenceable(32) %27)
  %30 = load ptr, ptr %4, align 8, !tbaa !113
  %31 = getelementptr inbounds nuw %"class.duckdb_parquet::Statistics", ptr %30, i32 0, i32 7
  %32 = load i8, ptr %31, align 8, !tbaa !121, !range !46, !noundef !47
  %33 = trunc i8 %32 to i1
  %34 = getelementptr inbounds nuw %"class.duckdb_parquet::Statistics", ptr %5, i32 0, i32 7
  %35 = zext i1 %33 to i8
  store i8 %35, ptr %34, align 8, !tbaa !121
  %36 = load ptr, ptr %4, align 8, !tbaa !113
  %37 = getelementptr inbounds nuw %"class.duckdb_parquet::Statistics", ptr %36, i32 0, i32 8
  %38 = load i8, ptr %37, align 1, !tbaa !122, !range !46, !noundef !47
  %39 = trunc i8 %38 to i1
  %40 = getelementptr inbounds nuw %"class.duckdb_parquet::Statistics", ptr %5, i32 0, i32 8
  %41 = zext i1 %39 to i8
  store i8 %41, ptr %40, align 1, !tbaa !122
  %42 = load ptr, ptr %4, align 8, !tbaa !113
  %43 = getelementptr inbounds nuw %"class.duckdb_parquet::Statistics", ptr %42, i32 0, i32 9
  %44 = getelementptr inbounds nuw %"class.duckdb_parquet::Statistics", ptr %5, i32 0, i32 9
  call void @llvm.memcpy.p0.p0.i64(ptr align 2 %44, ptr align 2 %43, i64 1, i1 false), !tbaa.struct !111
  ret ptr %5
}

; Function Attrs: mustprogress uwtable
define void @_ZN14duckdb_parquet14ColumnMetaData16__set_statisticsERKNS_10StatisticsE(ptr noundef nonnull align 8 dereferenceable(417) %0, ptr noundef nonnull align 8 dereferenceable(155) %1) #2 align 2 {
  %3 = alloca ptr, align 8
  %4 = alloca ptr, align 8
  store ptr %0, ptr %3, align 8, !tbaa !349
  store ptr %1, ptr %4, align 8, !tbaa !113
  %5 = load ptr, ptr %3, align 8
  %6 = load ptr, ptr %4, align 8, !tbaa !113
  %7 = getelementptr inbounds nuw %"class.duckdb_parquet::ColumnMetaData", ptr %5, i32 0, i32 14
  %8 = call noundef nonnull align 8 dereferenceable(155) ptr @_ZN14duckdb_parquet10StatisticsaSERKS0_(ptr noundef nonnull align 8 dereferenceable(155) %7, ptr noundef nonnull align 8 dereferenceable(155) %6)
  %9 = getelementptr inbounds nuw %"class.duckdb_parquet::ColumnMetaData", ptr %5, i32 0, i32 20
  %10 = load i8, ptr %9, align 8
  %11 = and i8 %10, -9
  %12 = or i8 %11, 8
  store i8 %12, ptr %9, align 8
  ret void
}